; Function Attrs: nounwind uwtable
define ptr @lv_timer_get_next(ptr noundef %0) local_unnamed_addr #0 {
  %2 = icmp eq ptr %0, null
  br i1 %2, label %3, label %5

3:                                                ; preds = %1
  %4 = tail call ptr @lv_ll_get_head(ptr noundef nonnull getelementptr inbounds nuw (i8, ptr @lv_global, i64 216)) #8
  br label %7

5:                                                ; preds = %1
  %6 = tail call ptr @lv_ll_get_next(ptr noundef nonnull getelementptr inbounds nuw (i8, ptr @lv_global, i64 216), ptr noundef nonnull %0) #8
  br label %7

7:                                                ; preds = %5, %3
  %.0 = phi ptr [ %4, %3 ], [ %6, %5 ]
  ret ptr %.0
}